#include <math.h>
#include <stdio.h>
#include <stdlib.h>
#include <string.h>
#include <iostream>
using namespace std;

int main()
{
	int n;
	long long int sum=0;
	cin>>n;
	if(n>=10){
		for(int i=1;i<10;i++){
			int ok=1;
			ok=(i%7);
			if(ok)  sum+=i*i;


		}
		for(int i=10;i<=n;i++){
			int ok[3]={1,1,1};
			ok[0]=(i%7);
			ok[1]=((i%10)%7);
			int j=i;
			ok[2]=((j/10)%7);
			if(ok[1]&&ok[0]&&ok[2])
				sum+=i*i;}

}
	else{
		for(int i=1;i<=n;i++){
					int ok=1;
					ok=(i%7);
					if(ok)  sum+=i*i;}



	}
  int k=n;
  k=k/10;
	for(int i=1;i<=k;i++)
		sum+=100*i*i;
	if(n>=70)
		sum=sum-4900;
    cout<<sum<<endl;
    return 0;

	}