; ModuleID = '30/310.cpp'
source_filename = "30/310.cpp"
target datalayout = "e-m:e-p270:32:32-p271:32:32-p272:64:64-i64:64-f80:128-n8:16:32:64-S128"
target triple = "x86_64-pc-linux-gnu"

%"class.std::ios_base::Init" = type { i8 }
%"class.std::basic_istream" = type { i32 (...)**, i64, %"class.std::basic_ios" }
%"class.std::basic_ios" = type { %"class.std::ios_base", %"class.std::basic_ostream"*, i8, i8, %"class.std::basic_streambuf"*, %"class.std::ctype"*, %"class.std::num_put"*, %"class.std::num_get"* }
%"class.std::ios_base" = type { i32 (...)**, i64, i64, i32, i32, i32, %"struct.std::ios_base::_Callback_list"*, %"struct.std::ios_base::_Words", [8 x %"struct.std::ios_base::_Words"], i32, %"struct.std::ios_base::_Words"*, %"class.std::locale" }
%"struct.std::ios_base::_Callback_list" = type { %"struct.std::ios_base::_Callback_list"*, void (i32, %"class.std::ios_base"*, i32)*, i32, i32 }
%"struct.std::ios_base::_Words" = type { i8*, i64 }
%"class.std::locale" = type { %"class.std::locale::_Impl"* }
%"class.std::locale::_Impl" = type { i32, %"class.std::locale::facet"**, i64, %"class.std::locale::facet"**, i8** }
%"class.std::locale::facet" = type <{ i32 (...)**, i32, [4 x i8] }>
%"class.std::basic_ostream" = type { i32 (...)**, %"class.std::basic_ios" }
%"class.std::basic_streambuf" = type { i32 (...)**, i8*, i8*, i8*, i8*, i8*, i8*, %"class.std::locale" }
%"class.std::ctype" = type <{ %"class.std::locale::facet.base", [4 x i8], %struct.__locale_struct*, i8, [7 x i8], i32*, i32*, i16*, i8, [256 x i8], [256 x i8], i8, [6 x i8] }>
%"class.std::locale::facet.base" = type <{ i32 (...)**, i32 }>
%struct.__locale_struct = type { [13 x %struct.__locale_data*], i16*, i32*, i32*, [13 x i8*] }
%struct.__locale_data = type opaque
%"class.std::num_put" = type { %"class.std::locale::facet.base", [4 x i8] }
%"class.std::num_get" = type { %"class.std::locale::facet.base", [4 x i8] }

@_ZStL8__ioinit = internal global %"class.std::ios_base::Init" zeroinitializer, align 1
@__dso_handle = external hidden global i8
@_ZSt3cin = external dso_local global %"class.std::basic_istream", align 8
@__const.main.ok = private unnamed_addr constant [3 x i32] [i32 1, i32 1, i32 1], align 4
@_ZSt4cout = external dso_local global %"class.std::basic_ostream", align 8
@llvm.global_ctors = appending global [1 x { i32, void ()*, i8* }] [{ i32, void ()*, i8* } { i32 65535, void ()* @_GLOBAL__sub_I_310.cpp, i8* null }]

; Function Attrs: noinline uwtable
define internal void @__cxx_global_var_init() #0 section ".text.startup" {
  call void @_ZNSt8ios_base4InitC1Ev(%"class.std::ios_base::Init"* @_ZStL8__ioinit)
  %1 = call i32 @__cxa_atexit(void (i8*)* bitcast (void (%"class.std::ios_base::Init"*)* @_ZNSt8ios_base4InitD1Ev to void (i8*)*), i8* getelementptr inbounds (%"class.std::ios_base::Init", %"class.std::ios_base::Init"* @_ZStL8__ioinit, i32 0, i32 0), i8* @__dso_handle) #3
  ret void
}

declare dso_local void @_ZNSt8ios_base4InitC1Ev(%"class.std::ios_base::Init"*) unnamed_addr #1

; Function Attrs: nounwind
declare dso_local void @_ZNSt8ios_base4InitD1Ev(%"class.std::ios_base::Init"*) unnamed_addr #2

; Function Attrs: nounwind
declare dso_local i32 @__cxa_atexit(void (i8*)*, i8*, i8*) #3

; Function Attrs: noinline norecurse uwtable
define dso_local i32 @main() #4 {
  %1 = alloca i32, align 4
  %2 = alloca i32, align 4
  %3 = alloca i64, align 8
  %4 = alloca i32, align 4
  %5 = alloca i32, align 4
  %6 = alloca i32, align 4
  %7 = alloca [3 x i32], align 4
  %8 = alloca i32, align 4
  %9 = alloca i32, align 4
  %10 = alloca i32, align 4
  %11 = alloca i32, align 4
  %12 = alloca i32, align 4
  store i32 0, i32* %1, align 4
  store i64 0, i64* %3, align 8
  %13 = call dereferenceable(280) %"class.std::basic_istream"* @_ZNSirsERi(%"class.std::basic_istream"* @_ZSt3cin, i32* dereferenceable(4) %2)
  %14 = load i32, i32* %2, align 4
  %15 = icmp sge i32 %14, 10
  br i1 %15, label %16, label %78

16:                                               ; preds = %0
  store i32 1, i32* %4, align 4
  br label %17

17:                                               ; preds = %33, %16
  %18 = load i32, i32* %4, align 4
  %19 = icmp slt i32 %18, 10
  br i1 %19, label %20, label %36

20:                                               ; preds = %17
  store i32 1, i32* %5, align 4
  %21 = load i32, i32* %4, align 4
  %22 = srem i32 %21, 7
  store i32 %22, i32* %5, align 4
  %23 = load i32, i32* %5, align 4
  %24 = icmp ne i32 %23, 0
  br i1 %24, label %25, label %32

25:                                               ; preds = %20
  %26 = load i32, i32* %4, align 4
  %27 = load i32, i32* %4, align 4
  %28 = mul nsw i32 %26, %27
  %29 = sext i32 %28 to i64
  %30 = load i64, i64* %3, align 8
  %31 = add nsw i64 %30, %29
  store i64 %31, i64* %3, align 8
  br label %32

32:                                               ; preds = %25, %20
  br label %33

33:                                               ; preds = %32
  %34 = load i32, i32* %4, align 4
  %35 = add nsw i32 %34, 1
  store i32 %35, i32* %4, align 4
  br label %17

36:                                               ; preds = %17
  store i32 10, i32* %6, align 4
  br label %37

37:                                               ; preds = %74, %36
  %38 = load i32, i32* %6, align 4
  %39 = load i32, i32* %2, align 4
  %40 = icmp sle i32 %38, %39
  br i1 %40, label %41, label %77

41:                                               ; preds = %37
  %42 = bitcast [3 x i32]* %7 to i8*
  call void @llvm.memcpy.p0i8.p0i8.i64(i8* align 4 %42, i8* align 4 bitcast ([3 x i32]* @__const.main.ok to i8*), i64 12, i1 false)
  %43 = load i32, i32* %6, align 4
  %44 = srem i32 %43, 7
  %45 = getelementptr inbounds [3 x i32], [3 x i32]* %7, i64 0, i64 0
  store i32 %44, i32* %45, align 4
  %46 = load i32, i32* %6, align 4
  %47 = srem i32 %46, 10
  %48 = srem i32 %47, 7
  %49 = getelementptr inbounds [3 x i32], [3 x i32]* %7, i64 0, i64 1
  store i32 %48, i32* %49, align 4
  %50 = load i32, i32* %6, align 4
  store i32 %50, i32* %8, align 4
  %51 = load i32, i32* %8, align 4
  %52 = sdiv i32 %51, 10
  %53 = srem i32 %52, 7
  %54 = getelementptr inbounds [3 x i32], [3 x i32]* %7, i64 0, i64 2
  store i32 %53, i32* %54, align 4
  %55 = getelementptr inbounds [3 x i32], [3 x i32]* %7, i64 0, i64 1
  %56 = load i32, i32* %55, align 4
  %57 = icmp ne i32 %56, 0
  br i1 %57, label %58, label %73

58:                                               ; preds = %41
  %59 = getelementptr inbounds [3 x i32], [3 x i32]* %7, i64 0, i64 0
  %60 = load i32, i32* %59, align 4
  %61 = icmp ne i32 %60, 0
  br i1 %61, label %62, label %73

62:                                               ; preds = %58
  %63 = getelementptr inbounds [3 x i32], [3 x i32]* %7, i64 0, i64 2
  %64 = load i32, i32* %63, align 4
  %65 = icmp ne i32 %64, 0
  br i1 %65, label %66, label %73

66:                                               ; preds = %62
  %67 = load i32, i32* %6, align 4
  %68 = load i32, i32* %6, align 4
  %69 = mul nsw i32 %67, %68
  %70 = sext i32 %69 to i64
  %71 = load i64, i64* %3, align 8
  %72 = add nsw i64 %71, %70
  store i64 %72, i64* %3, align 8
  br label %73

73:                                               ; preds = %66, %62, %58, %41
  br label %74

74:                                               ; preds = %73
  %75 = load i32, i32* %6, align 4
  %76 = add nsw i32 %75, 1
  store i32 %76, i32* %6, align 4
  br label %37

77:                                               ; preds = %37
  br label %100

78:                                               ; preds = %0
  store i32 1, i32* %9, align 4
  br label %79

79:                                               ; preds = %96, %78
  %80 = load i32, i32* %9, align 4
  %81 = load i32, i32* %2, align 4
  %82 = icmp sle i32 %80, %81
  br i1 %82, label %83, label %99

83:                                               ; preds = %79
  store i32 1, i32* %10, align 4
  %84 = load i32, i32* %9, align 4
  %85 = srem i32 %84, 7
  store i32 %85, i32* %10, align 4
  %86 = load i32, i32* %10, align 4
  %87 = icmp ne i32 %86, 0
  br i1 %87, label %88, label %95

88:                                               ; preds = %83
  %89 = load i32, i32* %9, align 4
  %90 = load i32, i32* %9, align 4
  %91 = mul nsw i32 %89, %90
  %92 = sext i32 %91 to i64
  %93 = load i64, i64* %3, align 8
  %94 = add nsw i64 %93, %92
  store i64 %94, i64* %3, align 8
  br label %95

95:                                               ; preds = %88, %83
  br label %96

96:                                               ; preds = %95
  %97 = load i32, i32* %9, align 4
  %98 = add nsw i32 %97, 1
  store i32 %98, i32* %9, align 4
  br label %79

99:                                               ; preds = %79
  br label %100

100:                                              ; preds = %99, %77
  %101 = load i32, i32* %2, align 4
  store i32 %101, i32* %11, align 4
  %102 = load i32, i32* %11, align 4
  %103 = sdiv i32 %102, 10
  store i32 %103, i32* %11, align 4
  store i32 1, i32* %12, align 4
  br label %104

104:                                              ; preds = %116, %100
  %105 = load i32, i32* %12, align 4
  %106 = load i32, i32* %11, align 4
  %107 = icmp sle i32 %105, %106
  br i1 %107, label %108, label %119

108:                                              ; preds = %104
  %109 = load i32, i32* %12, align 4
  %110 = mul nsw i32 100, %109
  %111 = load i32, i32* %12, align 4
  %112 = mul nsw i32 %110, %111
  %113 = sext i32 %112 to i64
  %114 = load i64, i64* %3, align 8
  %115 = add nsw i64 %114, %113
  store i64 %115, i64* %3, align 8
  br label %116

116:                                              ; preds = %108
  %117 = load i32, i32* %12, align 4
  %118 = add nsw i32 %117, 1
  store i32 %118, i32* %12, align 4
  br label %104

119:                                              ; preds = %104
  %120 = load i32, i32* %2, align 4
  %121 = icmp sge i32 %120, 70
  br i1 %121, label %122, label %125

122:                                              ; preds = %119
  %123 = load i64, i64* %3, align 8
  %124 = sub nsw i64 %123, 4900
  store i64 %124, i64* %3, align 8
  br label %125

125:                                              ; preds = %122, %119
  %126 = load i64, i64* %3, align 8
  %127 = call dereferenceable(272) %"class.std::basic_ostream"* @_ZNSolsEx(%"class.std::basic_ostream"* @_ZSt4cout, i64 %126)
  %128 = call dereferenceable(272) %"class.std::basic_ostream"* @_ZNSolsEPFRSoS_E(%"class.std::basic_ostream"* %127, %"class.std::basic_ostream"* (%"class.std::basic_ostream"*)* @_ZSt4endlIcSt11char_traitsIcEERSt13basic_ostreamIT_T0_ES6_)
  ret i32 0
}

declare dso_local dereferenceable(280) %"class.std::basic_istream"* @_ZNSirsERi(%"class.std::basic_istream"*, i32* dereferenceable(4)) #1

; Function Attrs: argmemonly nounwind willreturn
declare void @llvm.memcpy.p0i8.p0i8.i64(i8* noalias nocapture writeonly, i8* noalias nocapture readonly, i64, i1 immarg) #5

declare dso_local dereferenceable(272) %"class.std::basic_ostream"* @_ZNSolsEx(%"class.std::basic_ostream"*, i64) #1

declare dso_local dereferenceable(272) %"class.std::basic_ostream"* @_ZNSolsEPFRSoS_E(%"class.std::basic_ostream"*, %"class.std::basic_ostream"* (%"class.std::basic_ostream"*)*) #1

declare dso_local dereferenceable(272) %"class.std::basic_ostream"* @_ZSt4endlIcSt11char_traitsIcEERSt13basic_ostreamIT_T0_ES6_(%"class.std::basic_ostream"* dereferenceable(272)) #1

; Function Attrs: noinline uwtable
define internal void @_GLOBAL__sub_I_310.cpp() #0 section ".text.startup" {
  call void @__cxx_global_var_init()
  ret void
}


!llvm.module.flags = !{!0}
!llvm.ident = !{!1}

!0 = !{i32 1, !"wchar_size", i32 4}
!1 = !{!"clang version 10.0.0-4ubuntu1 "}
